; ModuleID = '9/1650.c'
source_filename = "9/1650.c"
target datalayout = "e-m:e-p270:32:32-p271:32:32-p272:64:64-i64:64-f80:128-n8:16:32:64-S128"
target triple = "x86_64-pc-linux-gnu"

@.str = private unnamed_addr constant [3 x i8] c"%d\00", align 1
@.str.1 = private unnamed_addr constant [5 x i8] c"%s%d\00", align 1
@.str.2 = private unnamed_addr constant [4 x i8] c"%s\0A\00", align 1

; Function Attrs: noinline nounwind uwtable
define dso_local i32 @main() #0 {
  %1 = alloca i32, align 4
  %2 = alloca i32, align 4
  %3 = alloca [100 x i32], align 16
  %4 = alloca [100 x i32], align 16
  %5 = alloca [100 x i32], align 16
  %6 = alloca i32, align 4
  %7 = alloca i32, align 4
  %8 = alloca i32, align 4
  %9 = alloca i32, align 4
  %10 = alloca i32, align 4
  %11 = alloca i32, align 4
  %12 = alloca [100 x [12 x i8]], align 16
  %13 = alloca [100 x [13 x i8]], align 16
  %14 = alloca [100 x [13 x i8]], align 16
  %15 = alloca [12 x i8], align 1
  store i32 0, i32* %1, align 4
  store i32 0, i32* %6, align 4
  store i32 0, i32* %9, align 4
  store i32 0, i32* %10, align 4
  store i32 0, i32* %11, align 4
  %16 = bitcast [100 x [13 x i8]]* %13 to i8*
  call void @llvm.memset.p0i8.i64(i8* align 16 %16, i8 0, i64 1300, i1 false)
  %17 = bitcast [100 x [13 x i8]]* %14 to i8*
  call void @llvm.memset.p0i8.i64(i8* align 16 %17, i8 0, i64 1300, i1 false)
  %18 = bitcast [12 x i8]* %15 to i8*
  call void @llvm.memset.p0i8.i64(i8* align 1 %18, i8 0, i64 12, i1 false)
  %19 = call i32 (i8*, ...) @__isoc99_scanf(i8* getelementptr inbounds ([3 x i8], [3 x i8]* @.str, i64 0, i64 0), i32* %2)
  store i32 0, i32* %6, align 4
  br label %20

20:                                               ; preds = %76, %0
  %21 = load i32, i32* %6, align 4
  %22 = load i32, i32* %2, align 4
  %23 = icmp slt i32 %21, %22
  br i1 %23, label %24, label %79

24:                                               ; preds = %20
  %25 = load i32, i32* %6, align 4
  %26 = sext i32 %25 to i64
  %27 = getelementptr inbounds [100 x [12 x i8]], [100 x [12 x i8]]* %12, i64 0, i64 %26
  %28 = load i32, i32* %6, align 4
  %29 = sext i32 %28 to i64
  %30 = getelementptr inbounds [100 x i32], [100 x i32]* %3, i64 0, i64 %29
  %31 = call i32 (i8*, ...) @__isoc99_scanf(i8* getelementptr inbounds ([5 x i8], [5 x i8]* @.str.1, i64 0, i64 0), [12 x i8]* %27, i32* %30)
  %32 = load i32, i32* %6, align 4
  %33 = sext i32 %32 to i64
  %34 = getelementptr inbounds [100 x i32], [100 x i32]* %3, i64 0, i64 %33
  %35 = load i32, i32* %34, align 4
  %36 = icmp sge i32 %35, 60
  br i1 %36, label %37, label %56

37:                                               ; preds = %24
  %38 = load i32, i32* %6, align 4
  %39 = sext i32 %38 to i64
  %40 = getelementptr inbounds [100 x i32], [100 x i32]* %3, i64 0, i64 %39
  %41 = load i32, i32* %40, align 4
  %42 = load i32, i32* %9, align 4
  %43 = sext i32 %42 to i64
  %44 = getelementptr inbounds [100 x i32], [100 x i32]* %4, i64 0, i64 %43
  store i32 %41, i32* %44, align 4
  %45 = load i32, i32* %9, align 4
  %46 = sext i32 %45 to i64
  %47 = getelementptr inbounds [100 x [13 x i8]], [100 x [13 x i8]]* %13, i64 0, i64 %46
  %48 = getelementptr inbounds [13 x i8], [13 x i8]* %47, i64 0, i64 0
  %49 = load i32, i32* %6, align 4
  %50 = sext i32 %49 to i64
  %51 = getelementptr inbounds [100 x [12 x i8]], [100 x [12 x i8]]* %12, i64 0, i64 %50
  %52 = getelementptr inbounds [12 x i8], [12 x i8]* %51, i64 0, i64 0
  %53 = call i8* @strcpy(i8* %48, i8* %52) #4
  %54 = load i32, i32* %9, align 4
  %55 = add nsw i32 %54, 1
  store i32 %55, i32* %9, align 4
  br label %75

56:                                               ; preds = %24
  %57 = load i32, i32* %6, align 4
  %58 = sext i32 %57 to i64
  %59 = getelementptr inbounds [100 x i32], [100 x i32]* %3, i64 0, i64 %58
  %60 = load i32, i32* %59, align 4
  %61 = load i32, i32* %10, align 4
  %62 = sext i32 %61 to i64
  %63 = getelementptr inbounds [100 x i32], [100 x i32]* %5, i64 0, i64 %62
  store i32 %60, i32* %63, align 4
  %64 = load i32, i32* %10, align 4
  %65 = sext i32 %64 to i64
  %66 = getelementptr inbounds [100 x [13 x i8]], [100 x [13 x i8]]* %14, i64 0, i64 %65
  %67 = getelementptr inbounds [13 x i8], [13 x i8]* %66, i64 0, i64 0
  %68 = load i32, i32* %6, align 4
  %69 = sext i32 %68 to i64
  %70 = getelementptr inbounds [100 x [12 x i8]], [100 x [12 x i8]]* %12, i64 0, i64 %69
  %71 = getelementptr inbounds [12 x i8], [12 x i8]* %70, i64 0, i64 0
  %72 = call i8* @strcpy(i8* %67, i8* %71) #4
  %73 = load i32, i32* %10, align 4
  %74 = add nsw i32 %73, 1
  store i32 %74, i32* %10, align 4
  br label %75

75:                                               ; preds = %56, %37
  br label %76

76:                                               ; preds = %75
  %77 = load i32, i32* %6, align 4
  %78 = add nsw i32 %77, 1
  store i32 %78, i32* %6, align 4
  br label %20

79:                                               ; preds = %20
  store i32 0, i32* %6, align 4
  br label %80

80:                                               ; preds = %147, %79
  %81 = load i32, i32* %6, align 4
  %82 = load i32, i32* %9, align 4
  %83 = icmp slt i32 %81, %82
  br i1 %83, label %84, label %150

84:                                               ; preds = %80
  store i32 0, i32* %7, align 4
  br label %85

85:                                               ; preds = %143, %84
  %86 = load i32, i32* %7, align 4
  %87 = load i32, i32* %9, align 4
  %88 = sub nsw i32 %87, 1
  %89 = icmp slt i32 %86, %88
  br i1 %89, label %90, label %146

90:                                               ; preds = %85
  %91 = load i32, i32* %7, align 4
  %92 = sext i32 %91 to i64
  %93 = getelementptr inbounds [100 x i32], [100 x i32]* %4, i64 0, i64 %92
  %94 = load i32, i32* %93, align 4
  %95 = load i32, i32* %7, align 4
  %96 = add nsw i32 %95, 1
  %97 = sext i32 %96 to i64
  %98 = getelementptr inbounds [100 x i32], [100 x i32]* %4, i64 0, i64 %97
  %99 = load i32, i32* %98, align 4
  %100 = icmp slt i32 %94, %99
  br i1 %100, label %101, label %142

101:                                              ; preds = %90
  %102 = load i32, i32* %7, align 4
  %103 = sext i32 %102 to i64
  %104 = getelementptr inbounds [100 x i32], [100 x i32]* %4, i64 0, i64 %103
  %105 = load i32, i32* %104, align 4
  store i32 %105, i32* %11, align 4
  %106 = load i32, i32* %7, align 4
  %107 = add nsw i32 %106, 1
  %108 = sext i32 %107 to i64
  %109 = getelementptr inbounds [100 x i32], [100 x i32]* %4, i64 0, i64 %108
  %110 = load i32, i32* %109, align 4
  %111 = load i32, i32* %7, align 4
  %112 = sext i32 %111 to i64
  %113 = getelementptr inbounds [100 x i32], [100 x i32]* %4, i64 0, i64 %112
  store i32 %110, i32* %113, align 4
  %114 = load i32, i32* %11, align 4
  %115 = load i32, i32* %7, align 4
  %116 = add nsw i32 %115, 1
  %117 = sext i32 %116 to i64
  %118 = getelementptr inbounds [100 x i32], [100 x i32]* %4, i64 0, i64 %117
  store i32 %114, i32* %118, align 4
  %119 = getelementptr inbounds [12 x i8], [12 x i8]* %15, i64 0, i64 0
  %120 = load i32, i32* %7, align 4
  %121 = sext i32 %120 to i64
  %122 = getelementptr inbounds [100 x [13 x i8]], [100 x [13 x i8]]* %13, i64 0, i64 %121
  %123 = getelementptr inbounds [13 x i8], [13 x i8]* %122, i64 0, i64 0
  %124 = call i8* @strcpy(i8* %119, i8* %123) #4
  %125 = load i32, i32* %7, align 4
  %126 = sext i32 %125 to i64
  %127 = getelementptr inbounds [100 x [13 x i8]], [100 x [13 x i8]]* %13, i64 0, i64 %126
  %128 = getelementptr inbounds [13 x i8], [13 x i8]* %127, i64 0, i64 0
  %129 = load i32, i32* %7, align 4
  %130 = add nsw i32 %129, 1
  %131 = sext i32 %130 to i64
  %132 = getelementptr inbounds [100 x [13 x i8]], [100 x [13 x i8]]* %13, i64 0, i64 %131
  %133 = getelementptr inbounds [13 x i8], [13 x i8]* %132, i64 0, i64 0
  %134 = call i8* @strcpy(i8* %128, i8* %133) #4
  %135 = load i32, i32* %7, align 4
  %136 = add nsw i32 %135, 1
  %137 = sext i32 %136 to i64
  %138 = getelementptr inbounds [100 x [13 x i8]], [100 x [13 x i8]]* %13, i64 0, i64 %137
  %139 = getelementptr inbounds [13 x i8], [13 x i8]* %138, i64 0, i64 0
  %140 = getelementptr inbounds [12 x i8], [12 x i8]* %15, i64 0, i64 0
  %141 = call i8* @strcpy(i8* %139, i8* %140) #4
  br label %142

142:                                              ; preds = %101, %90
  br label %143

143:                                              ; preds = %142
  %144 = load i32, i32* %7, align 4
  %145 = add nsw i32 %144, 1
  store i32 %145, i32* %7, align 4
  br label %85

146:                                              ; preds = %85
  br label %147

147:                                              ; preds = %146
  %148 = load i32, i32* %6, align 4
  %149 = add nsw i32 %148, 1
  store i32 %149, i32* %6, align 4
  br label %80

150:                                              ; preds = %80
  store i32 0, i32* %6, align 4
  br label %151

151:                                              ; preds = %161, %150
  %152 = load i32, i32* %6, align 4
  %153 = load i32, i32* %9, align 4
  %154 = icmp slt i32 %152, %153
  br i1 %154, label %155, label %164

155:                                              ; preds = %151
  %156 = load i32, i32* %6, align 4
  %157 = sext i32 %156 to i64
  %158 = getelementptr inbounds [100 x [13 x i8]], [100 x [13 x i8]]* %13, i64 0, i64 %157
  %159 = getelementptr inbounds [13 x i8], [13 x i8]* %158, i64 0, i64 0
  %160 = call i32 (i8*, ...) @printf(i8* getelementptr inbounds ([4 x i8], [4 x i8]* @.str.2, i64 0, i64 0), i8* %159)
  br label %161

161:                                              ; preds = %155
  %162 = load i32, i32* %6, align 4
  %163 = add nsw i32 %162, 1
  store i32 %163, i32* %6, align 4
  br label %151

164:                                              ; preds = %151
  store i32 0, i32* %6, align 4
  br label %165

165:                                              ; preds = %175, %164
  %166 = load i32, i32* %6, align 4
  %167 = load i32, i32* %10, align 4
  %168 = icmp slt i32 %166, %167
  br i1 %168, label %169, label %178

169:                                              ; preds = %165
  %170 = load i32, i32* %6, align 4
  %171 = sext i32 %170 to i64
  %172 = getelementptr inbounds [100 x [13 x i8]], [100 x [13 x i8]]* %14, i64 0, i64 %171
  %173 = getelementptr inbounds [13 x i8], [13 x i8]* %172, i64 0, i64 0
  %174 = call i32 (i8*, ...) @printf(i8* getelementptr inbounds ([4 x i8], [4 x i8]* @.str.2, i64 0, i64 0), i8* %173)
  br label %175

175:                                              ; preds = %169
  %176 = load i32, i32* %6, align 4
  %177 = add nsw i32 %176, 1
  store i32 %177, i32* %6, align 4
  br label %165

178:                                              ; preds = %165
  %179 = load i32, i32* %1, align 4
  ret i32 %179
}

; Function Attrs: argmemonly nounwind willreturn
declare void @llvm.memset.p0i8.i64(i8* nocapture writeonly, i8, i64, i1 immarg) #1

declare dso_local i32 @__isoc99_scanf(i8*, ...) #2

; Function Attrs: nounwind
declare dso_local i8* @strcpy(i8*, i8*) #3

declare dso_local i32 @printf(i8*, ...) #2


!llvm.module.flags = !{!0}
!llvm.ident = !{!1}

!0 = !{i32 1, !"wchar_size", i32 4}
!1 = !{!"clang version 10.0.0-4ubuntu1 "}
